target datalayout = "e-m:e-p270:32:32-p271:32:32-p272:64:64-i64:64-i128:128-f80:128-n8:16:32:64-S128"
target triple = "x86_64-unknown-linux-gnu"

%struct.QTailQLink = type { ptr, ptr }
%struct.BlockDriverState = type { i32, i8, i8, i8, i8, i8, ptr, ptr, ptr, %struct.anon.0, i8, [4096 x i8], [4096 x i8], [4096 x i8], [16 x i8], ptr, [4096 x i8], %struct.BlockLimits, i32, i32, i32, i32, [32 x i8], %union.anon, %union.anon.1, %union.anon.2, i32, [16 x %struct.anon.3], ptr, %struct.anon.4, ptr, ptr, %struct.anon.5, ptr, ptr, i32, ptr, i64, i64, %struct.QemuMutex, %struct.anon.6, %struct.Stat64, i32, i32, i32, i32, i32, i32, %struct.QemuMutex, %struct.anon.7, %struct.CoQueue, i8, i32, i8, %struct.CoMutex, ptr, ptr }
%struct.anon.0 = type { ptr }
%struct.BlockLimits = type { i32, i64, i32, i64, i32, i32, i32, i64, i32, i64, i64, i32, i8, i32, i32, i32, i32, i32, i32, i32 }
%union.anon = type { %struct.QTailQLink }
%union.anon.1 = type { %struct.QTailQLink }
%union.anon.2 = type { %struct.QTailQLink }
%struct.anon.3 = type { ptr }
%struct.anon.4 = type { ptr }
%struct.anon.5 = type { ptr }
%struct.anon.6 = type { ptr }
%struct.Stat64 = type { i64 }
%struct.QemuMutex = type { %union.pthread_mutex_t, i8 }
%union.pthread_mutex_t = type { %struct.__pthread_mutex_s }
%struct.__pthread_mutex_s = type { i32, i32, i32, i32, i32, i16, i16, %struct.__pthread_internal_list }
%struct.__pthread_internal_list = type { ptr, ptr }
%struct.anon.7 = type { ptr }
%struct.CoQueue = type { %struct.anon.8 }
%struct.anon.8 = type { ptr, ptr }
%struct.CoMutex = type { i32, ptr, %struct.anon.9, %struct.anon.9, i32, i32, ptr }
%struct.anon.9 = type { ptr }

@.str.12 = private unnamed_addr constant [25 x i8] c"../qemu/block/blkdebug.c\00", align 1
@.str.55 = private unnamed_addr constant [50 x i8] c"QEMU_IS_ALIGNED(offset, bs->bl.request_alignment)\00", align 1
@__PRETTY_FUNCTION__.blkdebug_co_preadv = private unnamed_addr constant [95 x i8] c"int blkdebug_co_preadv(BlockDriverState *, int64_t, int64_t, QEMUIOVector *, BdrvRequestFlags)\00", align 1
@.str.56 = private unnamed_addr constant [49 x i8] c"QEMU_IS_ALIGNED(bytes, bs->bl.request_alignment)\00", align 1
@.str.57 = private unnamed_addr constant [29 x i8] c"bytes <= bs->bl.max_transfer\00", align 1

; Function Attrs: nounwind sspstrong uwtable
define internal i32 @blkdebug_co_preadv(ptr noundef %bs, i64 noundef %offset, i64 noundef %bytes, ptr noundef %qiov, i32 noundef %flags) #0 {
entry:
  %retval = alloca i32, align 4
  %bs.addr = alloca ptr, align 8
  %offset.addr = alloca i64, align 8
  %bytes.addr = alloca i64, align 8
  %qiov.addr = alloca ptr, align 8
  %flags.addr = alloca i32, align 4
  %err = alloca i32, align 4
  store ptr %bs, ptr %bs.addr, align 8
  store i64 %offset, ptr %offset.addr, align 8
  store i64 %bytes, ptr %bytes.addr, align 8
  store ptr %qiov, ptr %qiov.addr, align 8
  store i32 %flags, ptr %flags.addr, align 4
  %0 = load i64, ptr %offset.addr, align 8
  %1 = load ptr, ptr %bs.addr, align 8
  %bl = getelementptr inbounds %struct.BlockDriverState, ptr %1, i32 0, i32 17
  %request_alignment = getelementptr inbounds %struct.BlockLimits, ptr %bl, i32 0, i32 0
  %2 = load i32, ptr %request_alignment, align 8
  %conv = zext i32 %2 to i64
  %rem = srem i64 %0, %conv
  %cmp = icmp eq i64 %rem, 0
  br i1 %cmp, label %if.then, label %if.else

if.then:                                          ; preds = %entry
  br label %if.end

if.else:                                          ; preds = %entry
  call void @__assert_fail(ptr noundef @.str.55, ptr noundef @.str.12, i32 noundef 640, ptr noundef @__PRETTY_FUNCTION__.blkdebug_co_preadv) #15
  unreachable

if.end:                                           ; preds = %if.then
  %3 = load i64, ptr %bytes.addr, align 8
  %4 = load ptr, ptr %bs.addr, align 8
  %bl2 = getelementptr inbounds %struct.BlockDriverState, ptr %4, i32 0, i32 17
  %request_alignment3 = getelementptr inbounds %struct.BlockLimits, ptr %bl2, i32 0, i32 0
  %5 = load i32, ptr %request_alignment3, align 8
  %conv4 = zext i32 %5 to i64
  %rem5 = srem i64 %3, %conv4
  %cmp6 = icmp eq i64 %rem5, 0
  br i1 %cmp6, label %if.then8, label %if.else9

if.then8:                                         ; preds = %if.end
  br label %if.end10

if.else9:                                         ; preds = %if.end
  call void @__assert_fail(ptr noundef @.str.56, ptr noundef @.str.12, i32 noundef 641, ptr noundef @__PRETTY_FUNCTION__.blkdebug_co_preadv) #15
  unreachable

if.end10:                                         ; preds = %if.then8
  %6 = load ptr, ptr %bs.addr, align 8
  %bl11 = getelementptr inbounds %struct.BlockDriverState, ptr %6, i32 0, i32 17
  %max_transfer = getelementptr inbounds %struct.BlockLimits, ptr %bl11, i32 0, i32 6
  %7 = load i32, ptr %max_transfer, align 8
  %tobool = icmp ne i32 %7, 0
  br i1 %tobool, label %if.then12, label %if.end21

if.then12:                                        ; preds = %if.end10
  %8 = load i64, ptr %bytes.addr, align 8
  %9 = load ptr, ptr %bs.addr, align 8
  %bl13 = getelementptr inbounds %struct.BlockDriverState, ptr %9, i32 0, i32 17
  %max_transfer14 = getelementptr inbounds %struct.BlockLimits, ptr %bl13, i32 0, i32 6
  %10 = load i32, ptr %max_transfer14, align 8
  %conv15 = zext i32 %10 to i64
  %cmp16 = icmp sle i64 %8, %conv15
  br i1 %cmp16, label %if.then18, label %if.else19

if.then18:                                        ; preds = %if.then12
  br label %if.end20

if.else19:                                        ; preds = %if.then12
  call void @__assert_fail(ptr noundef @.str.57, ptr noundef @.str.12, i32 noundef 643, ptr noundef @__PRETTY_FUNCTION__.blkdebug_co_preadv) #15
  unreachable

if.end20:                                         ; preds = %if.then18
  br label %if.end21

if.end21:                                         ; preds = %if.end20, %if.end10
  %11 = load ptr, ptr %bs.addr, align 8
  %12 = load i64, ptr %offset.addr, align 8
  %13 = load i64, ptr %bytes.addr, align 8
  %call = call i32 @rule_check(ptr noundef %11, i64 noundef %12, i64 noundef %13, i32 noundef 0)
  store i32 %call, ptr %err, align 4
  %14 = load i32, ptr %err, align 4
  %tobool22 = icmp ne i32 %14, 0
  br i1 %tobool22, label %if.then23, label %if.end24

if.then23:                                        ; preds = %if.end21
  %15 = load i32, ptr %err, align 4
  store i32 %15, ptr %retval, align 4
  br label %return

if.end24:                                         ; preds = %if.end21
  %16 = load ptr, ptr %bs.addr, align 8
  %file = getelementptr inbounds %struct.BlockDriverState, ptr %16, i32 0, i32 31
  %17 = load ptr, ptr %file, align 8
  %18 = load i64, ptr %offset.addr, align 8
  %19 = load i64, ptr %bytes.addr, align 8
  %20 = load ptr, ptr %qiov.addr, align 8
  %21 = load i32, ptr %flags.addr, align 4
  %call25 = call i32 @bdrv_co_preadv(ptr noundef %17, i64 noundef %18, i64 noundef %19, ptr noundef %20, i32 noundef %21)
  store i32 %call25, ptr %retval, align 4
  br label %return

return:                                           ; preds = %if.end24, %if.then23
  %22 = load i32, ptr %retval, align 4
  ret i32 %22
}